; Function Attrs: mustprogress uwtable
define noundef i32 @_ZN10ColorUtils10graphColorEi(i32 noundef %0) local_unnamed_addr #0 align 2 personality ptr @__gxx_personality_v0 {
  %2 = alloca %class.QList, align 8
  %3 = load i64, ptr getelementptr inbounds (%class.QList, ptr @_ZN10ColorUtils13graph_colors_E, i64 0, i32 0, i32 2), align 8
  %4 = icmp eq i64 %3, 0
  br i1 %4, label %5, label %_ZN5QListIjED2Ev.exit

5:                                                ; preds = %1
  call void @_ZN10ColorUtils11graphColorsEv(ptr dead_on_unwind nonnull writable sret(%class.QList) align 8 %2)
  %6 = load ptr, ptr %2, align 8
  %.not.i.i.i = icmp eq ptr %6, null
  br i1 %.not.i.i.i, label %_ZN5QListIjED2Ev.exit, label %_ZN17QArrayDataPointerIjE5derefEv.exit.i.i

_ZN17QArrayDataPointerIjE5derefEv.exit.i.i:       ; preds = %5
  %7 = atomicrmw sub ptr %6, i32 1 seq_cst, align 4
  %.not.i.i = icmp eq i32 %7, 1
  br i1 %.not.i.i, label %8, label %_ZN5QListIjED2Ev.exit

8:                                                ; preds = %_ZN17QArrayDataPointerIjE5derefEv.exit.i.i
  %9 = load ptr, ptr %2, align 8
  tail call void @_ZN10QArrayData10deallocateEPS_xx(ptr noundef %9, i64 noundef 4, i64 noundef 8) #15
  br label %_ZN5QListIjED2Ev.exit

_ZN5QListIjED2Ev.exit:                            ; preds = %8, %_ZN17QArrayDataPointerIjE5derefEv.exit.i.i, %5, %1
  %10 = load i64, ptr getelementptr inbounds (%class.QList, ptr @_ZN10ColorUtils13graph_colors_E, i64 0, i32 0, i32 2), align 8
  %11 = load ptr, ptr @_ZN10ColorUtils13graph_colors_E, align 8
  %.not.i.i.i.i = icmp eq ptr %11, null
  br i1 %.not.i.i.i.i, label %_ZN5QListIjE6detachEv.exit.i, label %_ZNK17QArrayDataPointerIjE11needsDetachEv.exit.i.i.i

_ZNK17QArrayDataPointerIjE11needsDetachEv.exit.i.i.i: ; preds = %_ZN5QListIjED2Ev.exit
  %12 = load atomic i32, ptr %11 monotonic, align 4
  %13 = icmp sgt i32 %12, 1
  br i1 %13, label %_ZN5QListIjE6detachEv.exit.i, label %_ZNK17QArrayDataPointerIjE11needsDetachEv.exit.i.i.i.i

_ZN5QListIjE6detachEv.exit.i:                     ; preds = %_ZNK17QArrayDataPointerIjE11needsDetachEv.exit.i.i.i, %_ZN5QListIjED2Ev.exit
  tail call void @_ZN17QArrayDataPointerIjE17reallocateAndGrowEN10QArrayData14GrowthPositionExPS0_(ptr noundef nonnull align 8 dereferenceable(24) @_ZN10ColorUtils13graph_colors_E, i32 noundef 0, i64 noundef 0, ptr noundef null)
  %.pre.i = load ptr, ptr @_ZN10ColorUtils13graph_colors_E, align 8
  %.not.i.i.i.i.i = icmp eq ptr %.pre.i, null
  br i1 %.not.i.i.i.i.i, label %_ZNK17QArrayDataPointerIjE11needsDetachEv.exit.thread.i.i.i.i, label %_ZNK17QArrayDataPointerIjE11needsDetachEv.exit.i.i.i.i

_ZNK17QArrayDataPointerIjE11needsDetachEv.exit.i.i.i.i: ; preds = %_ZN5QListIjE6detachEv.exit.i, %_ZNK17QArrayDataPointerIjE11needsDetachEv.exit.i.i.i
  %14 = phi ptr [ %.pre.i, %_ZN5QListIjE6detachEv.exit.i ], [ %11, %_ZNK17QArrayDataPointerIjE11needsDetachEv.exit.i.i.i ]
  %15 = load atomic i32, ptr %14 monotonic, align 4
  %16 = icmp sgt i32 %15, 1
  br i1 %16, label %_ZNK17QArrayDataPointerIjE11needsDetachEv.exit.thread.i.i.i.i, label %_ZN5QListIjEixEx.exit

_ZNK17QArrayDataPointerIjE11needsDetachEv.exit.thread.i.i.i.i: ; preds = %_ZNK17QArrayDataPointerIjE11needsDetachEv.exit.i.i.i.i, %_ZN5QListIjE6detachEv.exit.i
  tail call void @_ZN17QArrayDataPointerIjE17reallocateAndGrowEN10QArrayData14GrowthPositionExPS0_(ptr noundef nonnull align 8 dereferenceable(24) @_ZN10ColorUtils13graph_colors_E, i32 noundef 0, i64 noundef 0, ptr noundef null)
  br label %_ZN5QListIjEixEx.exit

_ZN5QListIjEixEx.exit:                            ; preds = %_ZNK17QArrayDataPointerIjE11needsDetachEv.exit.i.i.i.i, %_ZNK17QArrayDataPointerIjE11needsDetachEv.exit.thread.i.i.i.i
  %17 = sext i32 %0 to i64
  %18 = srem i64 %17, %10
  %19 = load ptr, ptr getelementptr inbounds (%class.QList, ptr @_ZN10ColorUtils13graph_colors_E, i64 0, i32 0, i32 1), align 8
  %20 = getelementptr i32, ptr %19, i64 %18
  %21 = load i32, ptr %20, align 4
  ret i32 %21
}